target datalayout = "e-m:e-p270:32:32-p271:32:32-p272:64:64-i64:64-i128:128-f80:128-n8:16:32:64-S128"
target triple = "x86_64-pc-linux-gnu"

@.str.18 = private unnamed_addr constant [20 x i8] c"CHECKPOINT_SHUTDOWN\00", align 1
@.str.19 = private unnamed_addr constant [18 x i8] c"CHECKPOINT_ONLINE\00", align 1
@.str.20 = private unnamed_addr constant [5 x i8] c"NOOP\00", align 1
@.str.21 = private unnamed_addr constant [8 x i8] c"NEXTOID\00", align 1
@.str.22 = private unnamed_addr constant [7 x i8] c"SWITCH\00", align 1
@.str.23 = private unnamed_addr constant [11 x i8] c"BACKUP_END\00", align 1
@.str.24 = private unnamed_addr constant [17 x i8] c"PARAMETER_CHANGE\00", align 1
@.str.25 = private unnamed_addr constant [14 x i8] c"RESTORE_POINT\00", align 1
@.str.26 = private unnamed_addr constant [11 x i8] c"FPW_CHANGE\00", align 1
@.str.27 = private unnamed_addr constant [16 x i8] c"END_OF_RECOVERY\00", align 1
@.str.28 = private unnamed_addr constant [21 x i8] c"OVERWRITE_CONTRECORD\00", align 1
@.str.29 = private unnamed_addr constant [4 x i8] c"FPI\00", align 1
@.str.30 = private unnamed_addr constant [13 x i8] c"FPI_FOR_HINT\00", align 1
@.str.31 = private unnamed_addr constant [16 x i8] c"CHECKPOINT_REDO\00", align 1

; Function Attrs: nounwind uwtable
define dso_local ptr @xlog_identify(i8 noundef zeroext %0) #0 {
  %2 = alloca i8, align 1
  %3 = alloca ptr, align 8
  store i8 %0, ptr %2, align 1
  call void @llvm.lifetime.start.p0(i64 8, ptr %3) #4
  store ptr null, ptr %3, align 8
  %4 = load i8, ptr %2, align 1
  %5 = zext i8 %4 to i32
  %6 = and i32 %5, -16
  switch i32 %6, label %21 [
    i32 0, label %7
    i32 16, label %8
    i32 32, label %9
    i32 48, label %10
    i32 64, label %11
    i32 80, label %12
    i32 96, label %13
    i32 112, label %14
    i32 128, label %15
    i32 144, label %16
    i32 208, label %17
    i32 176, label %18
    i32 160, label %19
    i32 224, label %20
  ]

7:                                                ; preds = %1
  store ptr @.str.18, ptr %3, align 8
  br label %21

8:                                                ; preds = %1
  store ptr @.str.19, ptr %3, align 8
  br label %21

9:                                                ; preds = %1
  store ptr @.str.20, ptr %3, align 8
  br label %21

10:                                               ; preds = %1
  store ptr @.str.21, ptr %3, align 8
  br label %21

11:                                               ; preds = %1
  store ptr @.str.22, ptr %3, align 8
  br label %21

12:                                               ; preds = %1
  store ptr @.str.23, ptr %3, align 8
  br label %21

13:                                               ; preds = %1
  store ptr @.str.24, ptr %3, align 8
  br label %21

14:                                               ; preds = %1
  store ptr @.str.25, ptr %3, align 8
  br label %21

15:                                               ; preds = %1
  store ptr @.str.26, ptr %3, align 8
  br label %21

16:                                               ; preds = %1
  store ptr @.str.27, ptr %3, align 8
  br label %21

17:                                               ; preds = %1
  store ptr @.str.28, ptr %3, align 8
  br label %21

18:                                               ; preds = %1
  store ptr @.str.29, ptr %3, align 8
  br label %21

19:                                               ; preds = %1
  store ptr @.str.30, ptr %3, align 8
  br label %21

20:                                               ; preds = %1
  store ptr @.str.31, ptr %3, align 8
  br label %21

21:                                               ; preds = %1, %20, %19, %18, %17, %16, %15, %14, %13, %12, %11, %10, %9, %8, %7
  %22 = load ptr, ptr %3, align 8
  call void @llvm.lifetime.end.p0(i64 8, ptr %3) #4
  ret ptr %22
}