; Function Attrs: mustprogress nofree norecurse nosync nounwind willreturn memory(none) uwtable
define dso_local noundef ptr @xlog_identify(i8 noundef zeroext %0) local_unnamed_addr #3 {
  %2 = lshr i8 %0, 4
  %.not = icmp eq i8 %2, 15
  br i1 %.not, label %4, label %switch.lookup

switch.lookup:                                    ; preds = %1
  %3 = zext nneg i8 %2 to i64
  %switch.gep = getelementptr inbounds nuw [15 x ptr], ptr @switch.table.xlog_identify, i64 0, i64 %3
  %switch.load = load ptr, ptr %switch.gep, align 8
  br label %4

4:                                                ; preds = %switch.lookup, %1
  %.0 = phi ptr [ null, %1 ], [ %switch.load, %switch.lookup ]
  ret ptr %.0
}